; Function Attrs: mustprogress uwtable
define internal fastcc void @"_ZZN7testing12_GLOBAL__N_140ThrowingValueTest_ThrowingStreamOps_Test8TestBodyEvENK3$_1clEv"(ptr nocapture noundef nonnull readonly align 8 dereferenceable(8) %this) unnamed_addr #3 align 2 personality ptr @__gxx_personality_v0 {
entry:
  %ref.tmp.i = alloca %"class.std::__cxx11::basic_string", align 8
  %stream = alloca %"class.std::__cxx11::basic_stringstream", align 8
  call void @_ZNSt7__cxx1118basic_stringstreamIcSt11char_traitsIcESaIcEEC1Ev(ptr noundef nonnull align 8 dereferenceable(128) %stream)
  %add.ptr = getelementptr inbounds i8, ptr %stream, i64 16
  %0 = load ptr, ptr %this, align 8
  call void @llvm.lifetime.start.p0(i64 32, ptr nonnull %ref.tmp.i)
  invoke void @_ZN7testing19exceptions_internal10MaybeThrowESt17basic_string_viewIcSt11char_traitsIcEEb(i64 78, ptr nonnull @__PRETTY_FUNCTION__._ZN7testinglsERSoRKNS_13ThrowingValueILNS_8TypeSpecE0EEE, i1 noundef zeroext false)
          to label %.noexc unwind label %lpad

.noexc:                                           ; preds = %entry
  %1 = load i32, ptr %0, align 4
  invoke void @_ZN7testing13ThrowingValueILNS_8TypeSpecE0EE17GetInstanceStringB5cxx11Ei(ptr nonnull sret(%"class.std::__cxx11::basic_string") align 8 %ref.tmp.i, i32 noundef %1)
          to label %.noexc1 unwind label %lpad

.noexc1:                                          ; preds = %.noexc
  %call.i = invoke noundef nonnull align 8 dereferenceable(8) ptr @_ZStlsIcSt11char_traitsIcESaIcEERSt13basic_ostreamIT_T0_ES7_RKNSt7__cxx1112basic_stringIS4_S5_T1_EE(ptr noundef nonnull align 8 dereferenceable(8) %add.ptr, ptr noundef nonnull align 8 dereferenceable(32) %ref.tmp.i)
          to label %invoke.cont unwind label %lpad.i

lpad.i:                                           ; preds = %.noexc1
  %2 = landingpad { ptr, i32 }
          cleanup
  call void @_ZNSt7__cxx1112basic_stringIcSt11char_traitsIcESaIcEED1Ev(ptr noundef nonnull align 8 dereferenceable(32) %ref.tmp.i) #23
  br label %lpad.body

invoke.cont:                                      ; preds = %.noexc1
  call void @_ZNSt7__cxx1112basic_stringIcSt11char_traitsIcESaIcEED1Ev(ptr noundef nonnull align 8 dereferenceable(32) %ref.tmp.i) #23
  call void @llvm.lifetime.end.p0(i64 32, ptr nonnull %ref.tmp.i)
  call void @_ZNSt7__cxx1118basic_stringstreamIcSt11char_traitsIcESaIcEED1Ev(ptr noundef nonnull align 8 dereferenceable(128) %stream) #23
  ret void

lpad:                                             ; preds = %.noexc, %entry
  %3 = landingpad { ptr, i32 }
          cleanup
  br label %lpad.body

lpad.body:                                        ; preds = %lpad.i, %lpad
  %eh.lpad-body = phi { ptr, i32 } [ %3, %lpad ], [ %2, %lpad.i ]
  call void @_ZNSt7__cxx1118basic_stringstreamIcSt11char_traitsIcESaIcEED1Ev(ptr noundef nonnull align 8 dereferenceable(128) %stream) #23
  resume { ptr, i32 } %eh.lpad-body
}